
./test/test.om：     文件格式 elf32-littleriscv


Disassembly of section .rom:

00000000 <.rom>:
   0:	00020137          	lui	sp,0x20
   4:	2c8010ef          	jal	ra,12cc <main>
   8:	0ff00513          	li	a0,255
   c:	000306b7          	lui	a3,0x30
  10:	00a68223          	sb	a0,4(a3) # 30004 <__heap_start+0x2e004>
  14:	ff9ff06f          	j	c <cd-0xff4>

Disassembly of section .text:

00001000 <cd>:
    1000:	fd010113          	addi	sp,sp,-48 # 1ffd0 <__heap_start+0x1dfd0>
    1004:	02912223          	sw	s1,36(sp)
    1008:	01412c23          	sw	s4,24(sp)
    100c:	01512a23          	sw	s5,20(sp)
    1010:	00001a37          	lui	s4,0x1
    1014:	00001ab7          	lui	s5,0x1
    1018:	000554b7          	lui	s1,0x55
    101c:	02812423          	sw	s0,40(sp)
    1020:	03212023          	sw	s2,32(sp)
    1024:	01312e23          	sw	s3,28(sp)
    1028:	01612823          	sw	s6,16(sp)
    102c:	01712623          	sw	s7,12(sp)
    1030:	01812423          	sw	s8,8(sp)
    1034:	01912223          	sw	s9,4(sp)
    1038:	01a12023          	sw	s10,0(sp)
    103c:	02112623          	sw	ra,44(sp)
    1040:	00050b93          	mv	s7,a0
    1044:	00058913          	mv	s2,a1
    1048:	00060d13          	mv	s10,a2
    104c:	00068993          	mv	s3,a3
    1050:	00050b13          	mv	s6,a0
    1054:	480a8a93          	addi	s5,s5,1152 # 1480 <main+0x1b4>
    1058:	488a0a13          	addi	s4,s4,1160 # 1488 <main+0x1bc>
    105c:	00030437          	lui	s0,0x30
    1060:	72f48493          	addi	s1,s1,1839 # 5572f <__heap_start+0x5372f>
    1064:	00100c13          	li	s8,1
    1068:	00a00c93          	li	s9,10
    106c:	00444583          	lbu	a1,4(s0) # 30004 <__heap_start+0x2e004>
    1070:	00544783          	lbu	a5,5(s0)
    1074:	00644683          	lbu	a3,6(s0)
    1078:	00744603          	lbu	a2,7(s0)
    107c:	00879793          	slli	a5,a5,0x8
    1080:	01069693          	slli	a3,a3,0x10
    1084:	01861613          	slli	a2,a2,0x18
    1088:	00d66633          	or	a2,a2,a3
    108c:	00b66633          	or	a2,a2,a1
    1090:	00f66633          	or	a2,a2,a5
    1094:	00444683          	lbu	a3,4(s0)
    1098:	00544803          	lbu	a6,5(s0)
    109c:	00644883          	lbu	a7,6(s0)
    10a0:	00744783          	lbu	a5,7(s0)
    10a4:	00881813          	slli	a6,a6,0x8
    10a8:	01089893          	slli	a7,a7,0x10
    10ac:	01879793          	slli	a5,a5,0x18
    10b0:	0117e7b3          	or	a5,a5,a7
    10b4:	00d7e7b3          	or	a5,a5,a3
    10b8:	0107e7b3          	or	a5,a5,a6
    10bc:	40c787b3          	sub	a5,a5,a2
    10c0:	fcf4fae3          	bgeu	s1,a5,1094 <cd+0x94>
    10c4:	098b0e63          	beq	s6,s8,1160 <cd+0x160>
    10c8:	fffb0b13          	addi	s6,s6,-1
    10cc:	000d0693          	mv	a3,s10
    10d0:	00098613          	mv	a2,s3
    10d4:	00090593          	mv	a1,s2
    10d8:	000b0513          	mv	a0,s6
    10dc:	f25ff0ef          	jal	ra,1000 <cd>
    10e0:	00050713          	mv	a4,a0
    10e4:	000a8813          	mv	a6,s5
    10e8:	06d00793          	li	a5,109
    10ec:	00f40023          	sb	a5,0(s0)
    10f0:	00184783          	lbu	a5,1(a6)
    10f4:	00180813          	addi	a6,a6,1
    10f8:	fe079ae3          	bnez	a5,10ec <cd+0xec>
    10fc:	00094783          	lbu	a5,0(s2)
    1100:	00078c63          	beqz	a5,1118 <cd+0x118>
    1104:	00090693          	mv	a3,s2
    1108:	00f40023          	sb	a5,0(s0)
    110c:	0016c783          	lbu	a5,1(a3)
    1110:	00168693          	addi	a3,a3,1
    1114:	fe079ae3          	bnez	a5,1108 <cd+0x108>
    1118:	000a0693          	mv	a3,s4
    111c:	02000793          	li	a5,32
    1120:	00f40023          	sb	a5,0(s0)
    1124:	0016c783          	lbu	a5,1(a3)
    1128:	00168693          	addi	a3,a3,1
    112c:	fe079ae3          	bnez	a5,1120 <cd+0x120>
    1130:	0009c783          	lbu	a5,0(s3)
    1134:	00078c63          	beqz	a5,114c <cd+0x14c>
    1138:	00098693          	mv	a3,s3
    113c:	00f40023          	sb	a5,0(s0)
    1140:	0016c783          	lbu	a5,1(a3)
    1144:	00168693          	addi	a3,a3,1
    1148:	fe079ae3          	bnez	a5,113c <cd+0x13c>
    114c:	00090793          	mv	a5,s2
    1150:	01940023          	sb	s9,0(s0)
    1154:	000d0913          	mv	s2,s10
    1158:	00078d13          	mv	s10,a5
    115c:	f11ff06f          	j	106c <cd+0x6c>
    1160:	fffb8b93          	addi	s7,s7,-1
    1164:	06d00793          	li	a5,109
    1168:	000306b7          	lui	a3,0x30
    116c:	00f68023          	sb	a5,0(a3) # 30000 <__heap_start+0x2e000>
    1170:	001ac783          	lbu	a5,1(s5)
    1174:	001a8a93          	addi	s5,s5,1
    1178:	fe079ae3          	bnez	a5,116c <cd+0x16c>
    117c:	00094783          	lbu	a5,0(s2)
    1180:	00078c63          	beqz	a5,1198 <cd+0x198>
    1184:	000306b7          	lui	a3,0x30
    1188:	00f68023          	sb	a5,0(a3) # 30000 <__heap_start+0x2e000>
    118c:	00194783          	lbu	a5,1(s2)
    1190:	00190913          	addi	s2,s2,1
    1194:	fe079ae3          	bnez	a5,1188 <cd+0x188>
    1198:	02000793          	li	a5,32
    119c:	000306b7          	lui	a3,0x30
    11a0:	00f68023          	sb	a5,0(a3) # 30000 <__heap_start+0x2e000>
    11a4:	001a4783          	lbu	a5,1(s4)
    11a8:	001a0a13          	addi	s4,s4,1
    11ac:	fe079ae3          	bnez	a5,11a0 <cd+0x1a0>
    11b0:	0009c783          	lbu	a5,0(s3)
    11b4:	00078c63          	beqz	a5,11cc <cd+0x1cc>
    11b8:	000306b7          	lui	a3,0x30
    11bc:	00f68023          	sb	a5,0(a3) # 30000 <__heap_start+0x2e000>
    11c0:	0019c783          	lbu	a5,1(s3)
    11c4:	00198993          	addi	s3,s3,1
    11c8:	fe079ae3          	bnez	a5,11bc <cd+0x1bc>
    11cc:	000307b7          	lui	a5,0x30
    11d0:	00a00693          	li	a3,10
    11d4:	00d78023          	sb	a3,0(a5) # 30000 <__heap_start+0x2e000>
    11d8:	02c12083          	lw	ra,44(sp)
    11dc:	02812403          	lw	s0,40(sp)
    11e0:	00170713          	addi	a4,a4,1
    11e4:	02412483          	lw	s1,36(sp)
    11e8:	02012903          	lw	s2,32(sp)
    11ec:	01c12983          	lw	s3,28(sp)
    11f0:	01812a03          	lw	s4,24(sp)
    11f4:	01412a83          	lw	s5,20(sp)
    11f8:	01012b03          	lw	s6,16(sp)
    11fc:	00812c03          	lw	s8,8(sp)
    1200:	00412c83          	lw	s9,4(sp)
    1204:	00012d03          	lw	s10,0(sp)
    1208:	01770533          	add	a0,a4,s7
    120c:	00c12b83          	lw	s7,12(sp)
    1210:	03010113          	addi	sp,sp,48
    1214:	00008067          	ret

00001218 <__divsi3>:
    1218:	06054063          	bltz	a0,1278 <__umodsi3+0x10>
    121c:	0605c663          	bltz	a1,1288 <__umodsi3+0x20>

00001220 <__udivsi3>:
    1220:	00058613          	mv	a2,a1
    1224:	00050593          	mv	a1,a0
    1228:	fff00513          	li	a0,-1
    122c:	02060c63          	beqz	a2,1264 <__udivsi3+0x44>
    1230:	00100693          	li	a3,1
    1234:	00b67a63          	bgeu	a2,a1,1248 <__udivsi3+0x28>
    1238:	00c05863          	blez	a2,1248 <__udivsi3+0x28>
    123c:	00161613          	slli	a2,a2,0x1
    1240:	00169693          	slli	a3,a3,0x1
    1244:	feb66ae3          	bltu	a2,a1,1238 <__udivsi3+0x18>
    1248:	00000513          	li	a0,0
    124c:	00c5e663          	bltu	a1,a2,1258 <__udivsi3+0x38>
    1250:	40c585b3          	sub	a1,a1,a2
    1254:	00d56533          	or	a0,a0,a3
    1258:	0016d693          	srli	a3,a3,0x1
    125c:	00165613          	srli	a2,a2,0x1
    1260:	fe0696e3          	bnez	a3,124c <__udivsi3+0x2c>
    1264:	00008067          	ret

00001268 <__umodsi3>:
    1268:	00008293          	mv	t0,ra
    126c:	fb5ff0ef          	jal	ra,1220 <__udivsi3>
    1270:	00058513          	mv	a0,a1
    1274:	00028067          	jr	t0
    1278:	40a00533          	neg	a0,a0
    127c:	00b04863          	bgtz	a1,128c <__umodsi3+0x24>
    1280:	40b005b3          	neg	a1,a1
    1284:	f9dff06f          	j	1220 <__udivsi3>
    1288:	40b005b3          	neg	a1,a1
    128c:	00008293          	mv	t0,ra
    1290:	f91ff0ef          	jal	ra,1220 <__udivsi3>
    1294:	40a00533          	neg	a0,a0
    1298:	00028067          	jr	t0

0000129c <__modsi3>:
    129c:	00008293          	mv	t0,ra
    12a0:	0005ca63          	bltz	a1,12b4 <__modsi3+0x18>
    12a4:	00054c63          	bltz	a0,12bc <__modsi3+0x20>
    12a8:	f79ff0ef          	jal	ra,1220 <__udivsi3>
    12ac:	00058513          	mv	a0,a1
    12b0:	00028067          	jr	t0
    12b4:	40b005b3          	neg	a1,a1
    12b8:	fe0558e3          	bgez	a0,12a8 <__modsi3+0xc>
    12bc:	40a00533          	neg	a0,a0
    12c0:	f61ff0ef          	jal	ra,1220 <__udivsi3>
    12c4:	40b00533          	neg	a0,a1
    12c8:	00028067          	jr	t0

Disassembly of section .text.startup:

000012cc <main>:
    12cc:	fb010113          	addi	sp,sp,-80
    12d0:	04100793          	li	a5,65
    12d4:	00f12623          	sw	a5,12(sp)
    12d8:	04200793          	li	a5,66
    12dc:	00f12a23          	sw	a5,20(sp)
    12e0:	04300793          	li	a5,67
    12e4:	04112623          	sw	ra,76(sp)
    12e8:	04812423          	sw	s0,72(sp)
    12ec:	04912223          	sw	s1,68(sp)
    12f0:	05212023          	sw	s2,64(sp)
    12f4:	03312e23          	sw	s3,60(sp)
    12f8:	03412c23          	sw	s4,56(sp)
    12fc:	03512a23          	sw	s5,52(sp)
    1300:	03612823          	sw	s6,48(sp)
    1304:	00010823          	sb	zero,16(sp)
    1308:	00010c23          	sb	zero,24(sp)
    130c:	00f12e23          	sw	a5,28(sp)
    1310:	02010023          	sb	zero,32(sp)
    1314:	000306b7          	lui	a3,0x30
    1318:	00a00613          	li	a2,10
    131c:	02000593          	li	a1,32
    1320:	00900513          	li	a0,9
    1324:	0080006f          	j	132c <main+0x60>
    1328:	14c71663          	bne	a4,a2,1474 <main+0x1a8>
    132c:	0006c783          	lbu	a5,0(a3) # 30000 <__heap_start+0x2e000>
    1330:	0ff7f713          	zext.b	a4,a5
    1334:	fe079ae3          	bnez	a5,1328 <main+0x5c>
    1338:	00000893          	li	a7,0
    133c:	00000513          	li	a0,0
    1340:	02d00613          	li	a2,45
    1344:	00900813          	li	a6,9
    1348:	000305b7          	lui	a1,0x30
    134c:	0180006f          	j	1364 <main+0x98>
    1350:	10d86e63          	bltu	a6,a3,146c <main+0x1a0>
    1354:	0005c683          	lbu	a3,0(a1) # 30000 <__heap_start+0x2e000>
    1358:	fd078513          	addi	a0,a5,-48
    135c:	0ff6f713          	zext.b	a4,a3
    1360:	10068663          	beqz	a3,146c <main+0x1a0>
    1364:	00251793          	slli	a5,a0,0x2
    1368:	00a787b3          	add	a5,a5,a0
    136c:	00179793          	slli	a5,a5,0x1
    1370:	fd070693          	addi	a3,a4,-48
    1374:	00e787b3          	add	a5,a5,a4
    1378:	0ff6f693          	zext.b	a3,a3
    137c:	fcc71ae3          	bne	a4,a2,1350 <main+0x84>
    1380:	0c088c63          	beqz	a7,1458 <main+0x18c>
    1384:	40a00533          	neg	a0,a0
    1388:	00000713          	li	a4,0
    138c:	01c10693          	addi	a3,sp,28
    1390:	01410613          	addi	a2,sp,20
    1394:	00c10593          	addi	a1,sp,12
    1398:	c69ff0ef          	jal	ra,1000 <cd>
    139c:	00050493          	mv	s1,a0
    13a0:	00000b13          	li	s6,0
    13a4:	00055663          	bgez	a0,13b0 <main+0xe4>
    13a8:	40a004b3          	neg	s1,a0
    13ac:	00100b13          	li	s6,1
    13b0:	00000413          	li	s0,0
    13b4:	02410913          	addi	s2,sp,36
    13b8:	00900a13          	li	s4,9
    13bc:	00a00593          	li	a1,10
    13c0:	00048513          	mv	a0,s1
    13c4:	ed9ff0ef          	jal	ra,129c <__modsi3>
    13c8:	00040a93          	mv	s5,s0
    13cc:	00140413          	addi	s0,s0,1
    13d0:	03050793          	addi	a5,a0,48
    13d4:	00890733          	add	a4,s2,s0
    13d8:	00048513          	mv	a0,s1
    13dc:	00a00593          	li	a1,10
    13e0:	fef70fa3          	sb	a5,-1(a4)
    13e4:	00048993          	mv	s3,s1
    13e8:	e31ff0ef          	jal	ra,1218 <__divsi3>
    13ec:	00050493          	mv	s1,a0
    13f0:	fd3a46e3          	blt	s4,s3,13bc <main+0xf0>
    13f4:	000b0c63          	beqz	s6,140c <main+0x140>
    13f8:	03040793          	addi	a5,s0,48
    13fc:	00278433          	add	s0,a5,sp
    1400:	02d00793          	li	a5,45
    1404:	fef40a23          	sb	a5,-12(s0)
    1408:	002a8413          	addi	s0,s5,2
    140c:	00890433          	add	s0,s2,s0
    1410:	00030737          	lui	a4,0x30
    1414:	fff44783          	lbu	a5,-1(s0)
    1418:	fff40413          	addi	s0,s0,-1
    141c:	00f70023          	sb	a5,0(a4) # 30000 <__heap_start+0x2e000>
    1420:	fe891ae3          	bne	s2,s0,1414 <main+0x148>
    1424:	00a00793          	li	a5,10
    1428:	00f70023          	sb	a5,0(a4)
    142c:	04c12083          	lw	ra,76(sp)
    1430:	04812403          	lw	s0,72(sp)
    1434:	04412483          	lw	s1,68(sp)
    1438:	04012903          	lw	s2,64(sp)
    143c:	03c12983          	lw	s3,60(sp)
    1440:	03812a03          	lw	s4,56(sp)
    1444:	03412a83          	lw	s5,52(sp)
    1448:	03012b03          	lw	s6,48(sp)
    144c:	00000513          	li	a0,0
    1450:	05010113          	addi	sp,sp,80
    1454:	00008067          	ret
    1458:	0005c683          	lbu	a3,0(a1)
    145c:	00100893          	li	a7,1
    1460:	fd078513          	addi	a0,a5,-48
    1464:	0ff6f713          	zext.b	a4,a3
    1468:	ee069ee3          	bnez	a3,1364 <main+0x98>
    146c:	f0088ee3          	beqz	a7,1388 <main+0xbc>
    1470:	f15ff06f          	j	1384 <main+0xb8>
    1474:	eab70ce3          	beq	a4,a1,132c <main+0x60>
    1478:	eaa70ae3          	beq	a4,a0,132c <main+0x60>
    147c:	ebdff06f          	j	1338 <main+0x6c>
