
./test/test.om：     文件格式 elf32-littleriscv


Disassembly of section .rom:

00000000 <.rom>:
   0:	00020137          	lui	sp,0x20
   4:	0b0010ef          	jal	ra,10b4 <main>
   8:	0ff00513          	li	a0,255
   c:	000306b7          	lui	a3,0x30
  10:	00a68223          	sb	a0,4(a3) # 30004 <__heap_start+0x2e004>
  14:	ff9ff06f          	j	c <__divsi3-0xff4>

Disassembly of section .text:

00001000 <__divsi3>:
    1000:	06054063          	bltz	a0,1060 <__umodsi3+0x10>
    1004:	0605c663          	bltz	a1,1070 <__umodsi3+0x20>

00001008 <__udivsi3>:
    1008:	00058613          	mv	a2,a1
    100c:	00050593          	mv	a1,a0
    1010:	fff00513          	li	a0,-1
    1014:	02060c63          	beqz	a2,104c <__udivsi3+0x44>
    1018:	00100693          	li	a3,1
    101c:	00b67a63          	bgeu	a2,a1,1030 <__udivsi3+0x28>
    1020:	00c05863          	blez	a2,1030 <__udivsi3+0x28>
    1024:	00161613          	slli	a2,a2,0x1
    1028:	00169693          	slli	a3,a3,0x1
    102c:	feb66ae3          	bltu	a2,a1,1020 <__udivsi3+0x18>
    1030:	00000513          	li	a0,0
    1034:	00c5e663          	bltu	a1,a2,1040 <__udivsi3+0x38>
    1038:	40c585b3          	sub	a1,a1,a2
    103c:	00d56533          	or	a0,a0,a3
    1040:	0016d693          	srli	a3,a3,0x1
    1044:	00165613          	srli	a2,a2,0x1
    1048:	fe0696e3          	bnez	a3,1034 <__udivsi3+0x2c>
    104c:	00008067          	ret

00001050 <__umodsi3>:
    1050:	00008293          	mv	t0,ra
    1054:	fb5ff0ef          	jal	ra,1008 <__udivsi3>
    1058:	00058513          	mv	a0,a1
    105c:	00028067          	jr	t0
    1060:	40a00533          	neg	a0,a0
    1064:	00b04863          	bgtz	a1,1074 <__umodsi3+0x24>
    1068:	40b005b3          	neg	a1,a1
    106c:	f9dff06f          	j	1008 <__udivsi3>
    1070:	40b005b3          	neg	a1,a1
    1074:	00008293          	mv	t0,ra
    1078:	f91ff0ef          	jal	ra,1008 <__udivsi3>
    107c:	40a00533          	neg	a0,a0
    1080:	00028067          	jr	t0

00001084 <__modsi3>:
    1084:	00008293          	mv	t0,ra
    1088:	0005ca63          	bltz	a1,109c <__modsi3+0x18>
    108c:	00054c63          	bltz	a0,10a4 <__modsi3+0x20>
    1090:	f79ff0ef          	jal	ra,1008 <__udivsi3>
    1094:	00058513          	mv	a0,a1
    1098:	00028067          	jr	t0
    109c:	40b005b3          	neg	a1,a1
    10a0:	fe0558e3          	bgez	a0,1090 <__modsi3+0xc>
    10a4:	40a00533          	neg	a0,a0
    10a8:	f61ff0ef          	jal	ra,1008 <__udivsi3>
    10ac:	40b00533          	neg	a0,a1
    10b0:	00028067          	jr	t0

Disassembly of section .text.startup:

000010b4 <main>:
    10b4:	fd010113          	addi	sp,sp,-48 # 1ffd0 <__heap_start+0x1dfd0>
    10b8:	02112623          	sw	ra,44(sp)
    10bc:	02812423          	sw	s0,40(sp)
    10c0:	02912223          	sw	s1,36(sp)
    10c4:	03212023          	sw	s2,32(sp)
    10c8:	01312e23          	sw	s3,28(sp)
    10cc:	01412c23          	sw	s4,24(sp)
    10d0:	01512a23          	sw	s5,20(sp)
    10d4:	01612823          	sw	s6,16(sp)
    10d8:	00030537          	lui	a0,0x30
    10dc:	00a00593          	li	a1,10
    10e0:	02000613          	li	a2,32
    10e4:	00900693          	li	a3,9
    10e8:	0080006f          	j	10f0 <main+0x3c>
    10ec:	26b79263          	bne	a5,a1,1350 <main+0x29c>
    10f0:	00054703          	lbu	a4,0(a0) # 30000 <__heap_start+0x2e000>
    10f4:	0ff77793          	zext.b	a5,a4
    10f8:	fe071ae3          	bnez	a4,10ec <main+0x38>
    10fc:	00000693          	li	a3,0
    1100:	00000613          	li	a2,0
    1104:	02d00893          	li	a7,45
    1108:	00900813          	li	a6,9
    110c:	00030537          	lui	a0,0x30
    1110:	0180006f          	j	1128 <main+0x74>
    1114:	04b86463          	bltu	a6,a1,115c <main+0xa8>
    1118:	00054583          	lbu	a1,0(a0) # 30000 <__heap_start+0x2e000>
    111c:	fd070613          	addi	a2,a4,-48
    1120:	0ff5f793          	zext.b	a5,a1
    1124:	02058c63          	beqz	a1,115c <main+0xa8>
    1128:	00261713          	slli	a4,a2,0x2
    112c:	00c70733          	add	a4,a4,a2
    1130:	00171713          	slli	a4,a4,0x1
    1134:	fd078593          	addi	a1,a5,-48
    1138:	00f70733          	add	a4,a4,a5
    113c:	0ff5f593          	zext.b	a1,a1
    1140:	fd179ae3          	bne	a5,a7,1114 <main+0x60>
    1144:	20069c63          	bnez	a3,135c <main+0x2a8>
    1148:	00054583          	lbu	a1,0(a0)
    114c:	00100693          	li	a3,1
    1150:	fd070613          	addi	a2,a4,-48
    1154:	0ff5f793          	zext.b	a5,a1
    1158:	fc0598e3          	bnez	a1,1128 <main+0x74>
    115c:	20069063          	bnez	a3,135c <main+0x2a8>
    1160:	000017b7          	lui	a5,0x1
    1164:	00001fb7          	lui	t6,0x1
    1168:	38c7a223          	sw	a2,900(a5) # 1384 <N>
    116c:	380fa483          	lw	s1,896(t6) # 1380 <total>
    1170:	12c05463          	blez	a2,1298 <main+0x1e4>
    1174:	000017b7          	lui	a5,0x1
    1178:	37c7a883          	lw	a7,892(a5) # 137c <h>
    117c:	000017b7          	lui	a5,0x1
    1180:	3787a303          	lw	t1,888(a5) # 1378 <i>
    1184:	000017b7          	lui	a5,0x1
    1188:	3747ae03          	lw	t3,884(a5) # 1374 <j>
    118c:	000017b7          	lui	a5,0x1
    1190:	3707ae83          	lw	t4,880(a5) # 1370 <__bss_start>
    1194:	00160613          	addi	a2,a2,1
    1198:	00048f13          	mv	t5,s1
    119c:	00000293          	li	t0,0
    11a0:	00100793          	li	a5,1
    11a4:	00100693          	li	a3,1
    11a8:	00100513          	li	a0,1
    11ac:	00100813          	li	a6,1
    11b0:	00100593          	li	a1,1
    11b4:	00100713          	li	a4,1
    11b8:	0ad78663          	beq	a5,a3,1264 <main+0x1b0>
    11bc:	0aa78463          	beq	a5,a0,1264 <main+0x1b0>
    11c0:	0b078263          	beq	a5,a6,1264 <main+0x1b0>
    11c4:	0ab78063          	beq	a5,a1,1264 <main+0x1b0>
    11c8:	08e78e63          	beq	a5,a4,1264 <main+0x1b0>
    11cc:	08f88c63          	beq	a7,a5,1264 <main+0x1b0>
    11d0:	08f30a63          	beq	t1,a5,1264 <main+0x1b0>
    11d4:	08fe0863          	beq	t3,a5,1264 <main+0x1b0>
    11d8:	08fe8663          	beq	t4,a5,1264 <main+0x1b0>
    11dc:	08a68463          	beq	a3,a0,1264 <main+0x1b0>
    11e0:	09068263          	beq	a3,a6,1264 <main+0x1b0>
    11e4:	08b68063          	beq	a3,a1,1264 <main+0x1b0>
    11e8:	06e68e63          	beq	a3,a4,1264 <main+0x1b0>
    11ec:	06d88c63          	beq	a7,a3,1264 <main+0x1b0>
    11f0:	06d30a63          	beq	t1,a3,1264 <main+0x1b0>
    11f4:	06de0863          	beq	t3,a3,1264 <main+0x1b0>
    11f8:	06de8663          	beq	t4,a3,1264 <main+0x1b0>
    11fc:	07050463          	beq	a0,a6,1264 <main+0x1b0>
    1200:	06b50263          	beq	a0,a1,1264 <main+0x1b0>
    1204:	06e50063          	beq	a0,a4,1264 <main+0x1b0>
    1208:	04a88e63          	beq	a7,a0,1264 <main+0x1b0>
    120c:	04a30c63          	beq	t1,a0,1264 <main+0x1b0>
    1210:	04ae0a63          	beq	t3,a0,1264 <main+0x1b0>
    1214:	04ae8863          	beq	t4,a0,1264 <main+0x1b0>
    1218:	04b80663          	beq	a6,a1,1264 <main+0x1b0>
    121c:	04e80463          	beq	a6,a4,1264 <main+0x1b0>
    1220:	05088263          	beq	a7,a6,1264 <main+0x1b0>
    1224:	05030063          	beq	t1,a6,1264 <main+0x1b0>
    1228:	030e0e63          	beq	t3,a6,1264 <main+0x1b0>
    122c:	030e8c63          	beq	t4,a6,1264 <main+0x1b0>
    1230:	02e58a63          	beq	a1,a4,1264 <main+0x1b0>
    1234:	02b88863          	beq	a7,a1,1264 <main+0x1b0>
    1238:	02b30663          	beq	t1,a1,1264 <main+0x1b0>
    123c:	02be0463          	beq	t3,a1,1264 <main+0x1b0>
    1240:	02be8263          	beq	t4,a1,1264 <main+0x1b0>
    1244:	02e88063          	beq	a7,a4,1264 <main+0x1b0>
    1248:	00e30e63          	beq	t1,a4,1264 <main+0x1b0>
    124c:	00ee0c63          	beq	t3,a4,1264 <main+0x1b0>
    1250:	00ee8a63          	beq	t4,a4,1264 <main+0x1b0>
    1254:	01c30863          	beq	t1,t3,1264 <main+0x1b0>
    1258:	01d88663          	beq	a7,t4,1264 <main+0x1b0>
    125c:	001f0f13          	addi	t5,t5,1
    1260:	00100293          	li	t0,1
    1264:	00170713          	addi	a4,a4,1
    1268:	f4c718e3          	bne	a4,a2,11b8 <main+0x104>
    126c:	00158593          	addi	a1,a1,1
    1270:	f4e592e3          	bne	a1,a4,11b4 <main+0x100>
    1274:	00180813          	addi	a6,a6,1
    1278:	f2b81ce3          	bne	a6,a1,11b0 <main+0xfc>
    127c:	00150513          	addi	a0,a0,1
    1280:	f30516e3          	bne	a0,a6,11ac <main+0xf8>
    1284:	00168693          	addi	a3,a3,1
    1288:	f2a690e3          	bne	a3,a0,11a8 <main+0xf4>
    128c:	00178793          	addi	a5,a5,1
    1290:	f0d79ae3          	bne	a5,a3,11a4 <main+0xf0>
    1294:	0c029863          	bnez	t0,1364 <main+0x2b0>
    1298:	00000993          	li	s3,0
    129c:	0004d663          	bgez	s1,12a8 <main+0x1f4>
    12a0:	409004b3          	neg	s1,s1
    12a4:	00100993          	li	s3,1
    12a8:	00000413          	li	s0,0
    12ac:	00410913          	addi	s2,sp,4
    12b0:	00900a93          	li	s5,9
    12b4:	00a00593          	li	a1,10
    12b8:	00048513          	mv	a0,s1
    12bc:	dc9ff0ef          	jal	ra,1084 <__modsi3>
    12c0:	00040a13          	mv	s4,s0
    12c4:	00140413          	addi	s0,s0,1
    12c8:	03050793          	addi	a5,a0,48
    12cc:	00890733          	add	a4,s2,s0
    12d0:	00048513          	mv	a0,s1
    12d4:	00a00593          	li	a1,10
    12d8:	fef70fa3          	sb	a5,-1(a4)
    12dc:	00048b13          	mv	s6,s1
    12e0:	d21ff0ef          	jal	ra,1000 <__divsi3>
    12e4:	00050493          	mv	s1,a0
    12e8:	fd6ac6e3          	blt	s5,s6,12b4 <main+0x200>
    12ec:	00098c63          	beqz	s3,1304 <main+0x250>
    12f0:	01040793          	addi	a5,s0,16
    12f4:	00278433          	add	s0,a5,sp
    12f8:	02d00793          	li	a5,45
    12fc:	fef40a23          	sb	a5,-12(s0)
    1300:	002a0413          	addi	s0,s4,2
    1304:	00890433          	add	s0,s2,s0
    1308:	000307b7          	lui	a5,0x30
    130c:	fff44703          	lbu	a4,-1(s0)
    1310:	fff40413          	addi	s0,s0,-1
    1314:	00e78023          	sb	a4,0(a5) # 30000 <__heap_start+0x2e000>
    1318:	fe891ae3          	bne	s2,s0,130c <main+0x258>
    131c:	00a00713          	li	a4,10
    1320:	00e78023          	sb	a4,0(a5)
    1324:	02c12083          	lw	ra,44(sp)
    1328:	02812403          	lw	s0,40(sp)
    132c:	02412483          	lw	s1,36(sp)
    1330:	02012903          	lw	s2,32(sp)
    1334:	01c12983          	lw	s3,28(sp)
    1338:	01812a03          	lw	s4,24(sp)
    133c:	01412a83          	lw	s5,20(sp)
    1340:	01012b03          	lw	s6,16(sp)
    1344:	00000513          	li	a0,0
    1348:	03010113          	addi	sp,sp,48
    134c:	00008067          	ret
    1350:	dac780e3          	beq	a5,a2,10f0 <main+0x3c>
    1354:	d8d78ee3          	beq	a5,a3,10f0 <main+0x3c>
    1358:	da5ff06f          	j	10fc <main+0x48>
    135c:	40c00633          	neg	a2,a2
    1360:	e01ff06f          	j	1160 <main+0xac>
    1364:	39efa023          	sw	t5,896(t6)
    1368:	000f0493          	mv	s1,t5
    136c:	f2dff06f          	j	1298 <main+0x1e4>
