
./test/test.om：     文件格式 elf32-littleriscv


Disassembly of section .rom:

00000000 <.rom>:
   0:	00020137          	lui	sp,0x20
   4:	0d4010ef          	jal	ra,10d8 <main>
   8:	0ff00513          	li	a0,255
   c:	000306b7          	lui	a3,0x30
  10:	00a68223          	sb	a0,4(a3) # 30004 <__heap_start+0x2e004>
  14:	ff9ff06f          	j	c <__mulsi3-0xff4>

Disassembly of section .text:

00001000 <__mulsi3>:
    1000:	00050613          	mv	a2,a0
    1004:	00000513          	li	a0,0
    1008:	0015f693          	andi	a3,a1,1
    100c:	00068463          	beqz	a3,1014 <__mulsi3+0x14>
    1010:	00c50533          	add	a0,a0,a2
    1014:	0015d593          	srli	a1,a1,0x1
    1018:	00161613          	slli	a2,a2,0x1
    101c:	fe0596e3          	bnez	a1,1008 <__mulsi3+0x8>
    1020:	00008067          	ret

00001024 <__divsi3>:
    1024:	06054063          	bltz	a0,1084 <__umodsi3+0x10>
    1028:	0605c663          	bltz	a1,1094 <__umodsi3+0x20>

0000102c <__udivsi3>:
    102c:	00058613          	mv	a2,a1
    1030:	00050593          	mv	a1,a0
    1034:	fff00513          	li	a0,-1
    1038:	02060c63          	beqz	a2,1070 <__udivsi3+0x44>
    103c:	00100693          	li	a3,1
    1040:	00b67a63          	bgeu	a2,a1,1054 <__udivsi3+0x28>
    1044:	00c05863          	blez	a2,1054 <__udivsi3+0x28>
    1048:	00161613          	slli	a2,a2,0x1
    104c:	00169693          	slli	a3,a3,0x1
    1050:	feb66ae3          	bltu	a2,a1,1044 <__udivsi3+0x18>
    1054:	00000513          	li	a0,0
    1058:	00c5e663          	bltu	a1,a2,1064 <__udivsi3+0x38>
    105c:	40c585b3          	sub	a1,a1,a2
    1060:	00d56533          	or	a0,a0,a3
    1064:	0016d693          	srli	a3,a3,0x1
    1068:	00165613          	srli	a2,a2,0x1
    106c:	fe0696e3          	bnez	a3,1058 <__udivsi3+0x2c>
    1070:	00008067          	ret

00001074 <__umodsi3>:
    1074:	00008293          	mv	t0,ra
    1078:	fb5ff0ef          	jal	ra,102c <__udivsi3>
    107c:	00058513          	mv	a0,a1
    1080:	00028067          	jr	t0
    1084:	40a00533          	neg	a0,a0
    1088:	00b04863          	bgtz	a1,1098 <__umodsi3+0x24>
    108c:	40b005b3          	neg	a1,a1
    1090:	f9dff06f          	j	102c <__udivsi3>
    1094:	40b005b3          	neg	a1,a1
    1098:	00008293          	mv	t0,ra
    109c:	f91ff0ef          	jal	ra,102c <__udivsi3>
    10a0:	40a00533          	neg	a0,a0
    10a4:	00028067          	jr	t0

000010a8 <__modsi3>:
    10a8:	00008293          	mv	t0,ra
    10ac:	0005ca63          	bltz	a1,10c0 <__modsi3+0x18>
    10b0:	00054c63          	bltz	a0,10c8 <__modsi3+0x20>
    10b4:	f79ff0ef          	jal	ra,102c <__udivsi3>
    10b8:	00058513          	mv	a0,a1
    10bc:	00028067          	jr	t0
    10c0:	40b005b3          	neg	a1,a1
    10c4:	fe0558e3          	bgez	a0,10b4 <__modsi3+0xc>
    10c8:	40a00533          	neg	a0,a0
    10cc:	f61ff0ef          	jal	ra,102c <__udivsi3>
    10d0:	40b00533          	neg	a0,a1
    10d4:	00028067          	jr	t0

Disassembly of section .text.startup:

000010d8 <main>:
    10d8:	fb010113          	addi	sp,sp,-80 # 1ffb0 <__heap_start+0x1dfb0>
    10dc:	05212023          	sw	s2,64(sp)
    10e0:	03312e23          	sw	s3,60(sp)
    10e4:	03412c23          	sw	s4,56(sp)
    10e8:	03512a23          	sw	s5,52(sp)
    10ec:	03812423          	sw	s8,40(sp)
    10f0:	03912223          	sw	s9,36(sp)
    10f4:	04112623          	sw	ra,76(sp)
    10f8:	04812423          	sw	s0,72(sp)
    10fc:	04912223          	sw	s1,68(sp)
    1100:	03612823          	sw	s6,48(sp)
    1104:	03712623          	sw	s7,44(sp)
    1108:	03a12023          	sw	s10,32(sp)
    110c:	01b12e23          	sw	s11,28(sp)
    1110:	00000a93          	li	s5,0
    1114:	00001cb7          	lui	s9,0x1
    1118:	00001c37          	lui	s8,0x1
    111c:	00410913          	addi	s2,sp,4
    1120:	00900993          	li	s3,9
    1124:	00030a37          	lui	s4,0x30
    1128:	218ca583          	lw	a1,536(s9) # 1218 <__bss_start>
    112c:	000a8513          	mv	a0,s5
    1130:	00000b13          	li	s6,0
    1134:	ecdff0ef          	jal	ra,1000 <__mulsi3>
    1138:	21cc2783          	lw	a5,540(s8) # 121c <x>
    113c:	00f50db3          	add	s11,a0,a5
    1140:	0c0dc263          	bltz	s11,1204 <main+0x12c>
    1144:	00000493          	li	s1,0
    1148:	00a00593          	li	a1,10
    114c:	000d8513          	mv	a0,s11
    1150:	f59ff0ef          	jal	ra,10a8 <__modsi3>
    1154:	03050413          	addi	s0,a0,48
    1158:	00048d13          	mv	s10,s1
    115c:	00148493          	addi	s1,s1,1
    1160:	00990733          	add	a4,s2,s1
    1164:	0ff47413          	zext.b	s0,s0
    1168:	000d8513          	mv	a0,s11
    116c:	00a00593          	li	a1,10
    1170:	fe870fa3          	sb	s0,-1(a4)
    1174:	000d8b93          	mv	s7,s11
    1178:	eadff0ef          	jal	ra,1024 <__divsi3>
    117c:	00050d93          	mv	s11,a0
    1180:	fd79c4e3          	blt	s3,s7,1148 <main+0x70>
    1184:	000b0e63          	beqz	s6,11a0 <main+0xc8>
    1188:	01048793          	addi	a5,s1,16
    118c:	002787b3          	add	a5,a5,sp
    1190:	02d00713          	li	a4,45
    1194:	fee78a23          	sb	a4,-12(a5)
    1198:	00048d13          	mv	s10,s1
    119c:	02d00413          	li	s0,45
    11a0:	01a907b3          	add	a5,s2,s10
    11a4:	00c0006f          	j	11b0 <main+0xd8>
    11a8:	fff7c403          	lbu	s0,-1(a5)
    11ac:	00070793          	mv	a5,a4
    11b0:	008a0023          	sb	s0,0(s4) # 30000 <__heap_start+0x2e000>
    11b4:	fff78713          	addi	a4,a5,-1
    11b8:	fef918e3          	bne	s2,a5,11a8 <main+0xd0>
    11bc:	00100793          	li	a5,1
    11c0:	04fa9863          	bne	s5,a5,1210 <main+0x138>
    11c4:	04c12083          	lw	ra,76(sp)
    11c8:	04812403          	lw	s0,72(sp)
    11cc:	04412483          	lw	s1,68(sp)
    11d0:	04012903          	lw	s2,64(sp)
    11d4:	03c12983          	lw	s3,60(sp)
    11d8:	03812a03          	lw	s4,56(sp)
    11dc:	03412a83          	lw	s5,52(sp)
    11e0:	03012b03          	lw	s6,48(sp)
    11e4:	02c12b83          	lw	s7,44(sp)
    11e8:	02812c03          	lw	s8,40(sp)
    11ec:	02412c83          	lw	s9,36(sp)
    11f0:	02012d03          	lw	s10,32(sp)
    11f4:	01c12d83          	lw	s11,28(sp)
    11f8:	00000513          	li	a0,0
    11fc:	05010113          	addi	sp,sp,80
    1200:	00008067          	ret
    1204:	41b00db3          	neg	s11,s11
    1208:	00100b13          	li	s6,1
    120c:	f39ff06f          	j	1144 <main+0x6c>
    1210:	00100a93          	li	s5,1
    1214:	f15ff06f          	j	1128 <main+0x50>

Disassembly of section .sdata:

00001218 <y>:
    1218:	0001                	nop
	...

0000121c <x>:
    121c:	0001                	nop
	...

Disassembly of section .riscv.attributes:

00000000 <.riscv.attributes>:
   0:	1b41                	addi	s6,s6,-16
   2:	0000                	unimp
   4:	7200                	flw	fs0,32(a2)
   6:	7369                	lui	t1,0xffffa
   8:	01007663          	bgeu	zero,a6,14 <__mulsi3-0xfec>
   c:	0011                	c.nop	4
   e:	0000                	unimp
  10:	1004                	addi	s1,sp,32
  12:	7205                	lui	tp,0xfffe1
  14:	3376                	fld	ft6,376(sp)
  16:	6932                	flw	fs2,12(sp)
  18:	7032                	flw	ft0,44(sp)
  1a:	0030                	addi	a2,sp,8

Disassembly of section .comment:

00000000 <.comment>:
   0:	3a434347          	fmsub.d	ft6,ft6,ft4,ft7,rmm
   4:	2820                	fld	fs0,80(s0)
   6:	29554e47          	fmsub.s	ft8,fa0,fs5,ft5,rmm
   a:	3120                	fld	fs0,96(a0)
   c:	2e31                	jal	328 <__mulsi3-0xcd8>
   e:	2e31                	jal	32a <__mulsi3-0xcd6>
  10:	0030                	addi	a2,sp,8

Disassembly of section .debug_line:

00000000 <.debug_line>:
   0:	0076                	c.slli	zero,0x1d
   2:	0000                	unimp
   4:	0005                	c.nop	1
   6:	0004                	0x4
   8:	002e                	c.slli	zero,0xb
   a:	0000                	unimp
   c:	0101                	addi	sp,sp,0
   e:	fb01                	bnez	a4,ffffff1e <__heap_start+0xffffdf1e>
  10:	0d0e                	slli	s10,s10,0x3
  12:	0100                	addi	s0,sp,128
  14:	0101                	addi	sp,sp,0
  16:	0001                	nop
  18:	0000                	unimp
  1a:	0001                	nop
  1c:	0100                	addi	s0,sp,128
  1e:	0101                	addi	sp,sp,0
  20:	021f 0000 0000      	0x21f
  26:	0000                	unimp
  28:	0000                	unimp
  2a:	0102                	c.slli64	sp
  2c:	021f 020f 0029      	0x29020f021f
  32:	0000                	unimp
  34:	2900                	fld	fs0,16(a0)
  36:	0000                	unimp
  38:	0100                	addi	s0,sp,128
  3a:	0500                	addi	s0,sp,640
  3c:	0002                	c.slli64	zero
  3e:	0010                	0x10
  40:	0300                	addi	s0,sp,384
  42:	0124                	addi	s1,sp,136
  44:	04090103          	lb	sp,64(s2)
  48:	0100                	addi	s0,sp,128
  4a:	04090203          	lb	tp,64(s2)
  4e:	0100                	addi	s0,sp,128
  50:	04090103          	lb	sp,64(s2)
  54:	0100                	addi	s0,sp,128
  56:	04090103          	lb	sp,64(s2)
  5a:	0100                	addi	s0,sp,128
  5c:	04090203          	lb	tp,64(s2)
  60:	0100                	addi	s0,sp,128
  62:	04090103          	lb	sp,64(s2)
  66:	0100                	addi	s0,sp,128
  68:	04090103          	lb	sp,64(s2)
  6c:	0100                	addi	s0,sp,128
  6e:	04090103          	lb	sp,64(s2)
  72:	0100                	addi	s0,sp,128
  74:	0409                	addi	s0,s0,2
  76:	0000                	unimp
  78:	0101                	addi	sp,sp,0
  7a:	0000014f          	fnmadd.s	ft2,ft0,ft0,ft0,rne
  7e:	0005                	c.nop	1
  80:	0004                	0x4
  82:	002e                	c.slli	zero,0xb
  84:	0000                	unimp
  86:	0101                	addi	sp,sp,0
  88:	fb01                	bnez	a4,ffffff98 <__heap_start+0xffffdf98>
  8a:	0d0e                	slli	s10,s10,0x3
  8c:	0100                	addi	s0,sp,128
  8e:	0101                	addi	sp,sp,0
  90:	0001                	nop
  92:	0000                	unimp
  94:	0001                	nop
  96:	0100                	addi	s0,sp,128
  98:	0101                	addi	sp,sp,0
  9a:	021f 0000 0000      	0x21f
  a0:	0000                	unimp
  a2:	0000                	unimp
  a4:	0102                	c.slli64	sp
  a6:	021f 020f 0032      	0x32020f021f
  ac:	0000                	unimp
  ae:	3200                	fld	fs0,32(a2)
  b0:	0000                	unimp
  b2:	0100                	addi	s0,sp,128
  b4:	0500                	addi	s0,sp,640
  b6:	2402                	fld	fs0,0(sp)
  b8:	0010                	0x10
  ba:	0300                	addi	s0,sp,384
  bc:	00c4                	addi	s1,sp,68
  be:	0301                	addi	t1,t1,0
  c0:	0901                	addi	s2,s2,0
  c2:	0004                	0x4
  c4:	0301                	addi	t1,t1,0
  c6:	0904                	addi	s1,sp,144
  c8:	0004                	0x4
  ca:	0301                	addi	t1,t1,0
  cc:	0901                	addi	s2,s2,0
  ce:	0004                	0x4
  d0:	0301                	addi	t1,t1,0
  d2:	0901                	addi	s2,s2,0
  d4:	0004                	0x4
  d6:	0301                	addi	t1,t1,0
  d8:	0901                	addi	s2,s2,0
  da:	0004                	0x4
  dc:	0301                	addi	t1,t1,0
  de:	0901                	addi	s2,s2,0
  e0:	0004                	0x4
  e2:	0301                	addi	t1,t1,0
  e4:	0901                	addi	s2,s2,0
  e6:	0004                	0x4
  e8:	0301                	addi	t1,t1,0
  ea:	0902                	c.slli64	s2
  ec:	0004                	0x4
  ee:	0301                	addi	t1,t1,0
  f0:	0901                	addi	s2,s2,0
  f2:	0004                	0x4
  f4:	0301                	addi	t1,t1,0
  f6:	0901                	addi	s2,s2,0
  f8:	0004                	0x4
  fa:	0301                	addi	t1,t1,0
  fc:	0901                	addi	s2,s2,0
  fe:	0004                	0x4
 100:	0301                	addi	t1,t1,0
 102:	0902                	c.slli64	s2
 104:	0004                	0x4
 106:	0301                	addi	t1,t1,0
 108:	0902                	c.slli64	s2
 10a:	0004                	0x4
 10c:	0301                	addi	t1,t1,0
 10e:	0901                	addi	s2,s2,0
 110:	0004                	0x4
 112:	0301                	addi	t1,t1,0
 114:	0901                	addi	s2,s2,0
 116:	0004                	0x4
 118:	0301                	addi	t1,t1,0
 11a:	0902                	c.slli64	s2
 11c:	0004                	0x4
 11e:	0301                	addi	t1,t1,0
 120:	0901                	addi	s2,s2,0
 122:	0004                	0x4
 124:	0301                	addi	t1,t1,0
 126:	0901                	addi	s2,s2,0
 128:	0004                	0x4
 12a:	0301                	addi	t1,t1,0
 12c:	0902                	c.slli64	s2
 12e:	0004                	0x4
 130:	0301                	addi	t1,t1,0
 132:	0905                	addi	s2,s2,1
 134:	0004                	0x4
 136:	0301                	addi	t1,t1,0
 138:	0901                	addi	s2,s2,0
 13a:	0004                	0x4
 13c:	0301                	addi	t1,t1,0
 13e:	0901                	addi	s2,s2,0
 140:	0004                	0x4
 142:	0301                	addi	t1,t1,0
 144:	0901                	addi	s2,s2,0
 146:	0004                	0x4
 148:	0301                	addi	t1,t1,0
 14a:	0905                	addi	s2,s2,1
 14c:	0004                	0x4
 14e:	0301                	addi	t1,t1,0
 150:	0902                	c.slli64	s2
 152:	0004                	0x4
 154:	0301                	addi	t1,t1,0
 156:	0902                	c.slli64	s2
 158:	0004                	0x4
 15a:	0301                	addi	t1,t1,0
 15c:	0901                	addi	s2,s2,0
 15e:	0004                	0x4
 160:	0301                	addi	t1,t1,0
 162:	0902                	c.slli64	s2
 164:	0004                	0x4
 166:	0301                	addi	t1,t1,0
 168:	0902                	c.slli64	s2
 16a:	0004                	0x4
 16c:	0301                	addi	t1,t1,0
 16e:	0901                	addi	s2,s2,0
 170:	0004                	0x4
 172:	0301                	addi	t1,t1,0
 174:	0901                	addi	s2,s2,0
 176:	0004                	0x4
 178:	0301                	addi	t1,t1,0
 17a:	0901                	addi	s2,s2,0
 17c:	0004                	0x4
 17e:	0301                	addi	t1,t1,0
 180:	0904                	addi	s1,sp,144
 182:	0004                	0x4
 184:	0301                	addi	t1,t1,0
 186:	0901                	addi	s2,s2,0
 188:	0004                	0x4
 18a:	0301                	addi	t1,t1,0
 18c:	0901                	addi	s2,s2,0
 18e:	0004                	0x4
 190:	0301                	addi	t1,t1,0
 192:	0902                	c.slli64	s2
 194:	0004                	0x4
 196:	0301                	addi	t1,t1,0
 198:	0901                	addi	s2,s2,0
 19a:	0004                	0x4
 19c:	0301                	addi	t1,t1,0
 19e:	0901                	addi	s2,s2,0
 1a0:	0004                	0x4
 1a2:	0301                	addi	t1,t1,0
 1a4:	0902                	c.slli64	s2
 1a6:	0004                	0x4
 1a8:	0301                	addi	t1,t1,0
 1aa:	0901                	addi	s2,s2,0
 1ac:	0004                	0x4
 1ae:	0301                	addi	t1,t1,0
 1b0:	0902                	c.slli64	s2
 1b2:	0004                	0x4
 1b4:	0301                	addi	t1,t1,0
 1b6:	0901                	addi	s2,s2,0
 1b8:	0004                	0x4
 1ba:	0301                	addi	t1,t1,0
 1bc:	0901                	addi	s2,s2,0
 1be:	0004                	0x4
 1c0:	0301                	addi	t1,t1,0
 1c2:	0901                	addi	s2,s2,0
 1c4:	0004                	0x4
 1c6:	0901                	addi	s2,s2,0
 1c8:	0004                	0x4
 1ca:	0100                	addi	s0,sp,128
 1cc:	01              	Address 0x00000000000001cc is out of bounds.


Disassembly of section .debug_line_str:

00000000 <.debug_line_str>:
   0:	2e2e                	fld	ft8,200(sp)
   2:	2f2e2e2f          	0x2f2e2e2f
   6:	2e2e                	fld	ft8,200(sp)
   8:	722f2e2f          	0x722f2e2f
   c:	7369                	lui	t1,0xffffa
   e:	672d7663          	bgeu	s10,s2,67a <__mulsi3-0x986>
  12:	6c2f6363          	bltu	t5,sp,6d8 <__mulsi3-0x928>
  16:	6269                	lui	tp,0x1a
  18:	2f636367          	0x2f636367
  1c:	666e6f63          	bltu	t3,t1,69a <__mulsi3-0x966>
  20:	6769                	lui	a4,0x1a
  22:	7369722f          	0x7369722f
  26:	6d007663          	bgeu	zero,a6,6f2 <__mulsi3-0x90e>
  2a:	6c75                	lui	s8,0x1d
  2c:	6964                	flw	fs1,84(a0)
  2e:	00532e33          	slt	t3,t1,t0
  32:	6964                	flw	fs1,84(a0)
  34:	2e76                	fld	ft8,344(sp)
  36:	          	fadd.s	ft0,ft0,ft0,rne

Disassembly of section .debug_info:

00000000 <.debug_info>:
   0:	0020                	addi	s0,sp,8
   2:	0000                	unimp
   4:	0005                	c.nop	1
   6:	0401                	addi	s0,s0,0
   8:	0000                	unimp
   a:	0000                	unimp
   c:	0001                	nop
   e:	0000                	unimp
  10:	0000                	unimp
  12:	0010                	0x10
  14:	2400                	fld	fs0,8(s0)
  16:	0000                	unimp
  18:	0000                	unimp
  1a:	0009                	c.nop	2
  1c:	0000                	unimp
  1e:	0064                	addi	s1,sp,12
  20:	0000                	unimp
  22:	8001                	c.srli64	s0
  24:	0021                	c.nop	8
  26:	0000                	unimp
  28:	0005                	c.nop	1
  2a:	0401                	addi	s0,s0,0
  2c:	0014                	0x14
  2e:	0000                	unimp
  30:	7a01                	lui	s4,0xfffe0
  32:	0000                	unimp
  34:	2400                	fld	fs0,8(s0)
  36:	0010                	0x10
  38:	b400                	fsd	fs0,40(s0)
  3a:	7001                	c.lui	zero,0xfffe0
  3c:	0000                	unimp
  3e:	0900                	addi	s0,sp,144
  40:	0000                	unimp
  42:	6400                	flw	fs0,8(s0)
  44:	0000                	unimp
  46:	0100                	addi	s0,sp,128
  48:	80              	Address 0x0000000000000048 is out of bounds.


Disassembly of section .debug_abbrev:

00000000 <.debug_abbrev>:
   0:	1101                	addi	sp,sp,-32
   2:	1000                	addi	s0,sp,32
   4:	12011117          	auipc	sp,0x12011
   8:	1b0e030f          	0x1b0e030f
   c:	250e                	fld	fa0,192(sp)
   e:	130e                	slli	t1,t1,0x23
  10:	0005                	c.nop	1
  12:	0000                	unimp
  14:	1101                	addi	sp,sp,-32
  16:	1000                	addi	s0,sp,32
  18:	12011117          	auipc	sp,0x12011
  1c:	1b0e030f          	0x1b0e030f
  20:	250e                	fld	fa0,192(sp)
  22:	130e                	slli	t1,t1,0x23
  24:	0005                	c.nop	1
	...

Disassembly of section .debug_aranges:

00000000 <.debug_aranges>:
   0:	001c                	0x1c
   2:	0000                	unimp
   4:	0002                	c.slli64	zero
   6:	0000                	unimp
   8:	0000                	unimp
   a:	0004                	0x4
   c:	0000                	unimp
   e:	0000                	unimp
  10:	1000                	addi	s0,sp,32
  12:	0000                	unimp
  14:	0024                	addi	s1,sp,8
	...
  1e:	0000                	unimp
  20:	001c                	0x1c
  22:	0000                	unimp
  24:	0002                	c.slli64	zero
  26:	0024                	addi	s1,sp,8
  28:	0000                	unimp
  2a:	0004                	0x4
  2c:	0000                	unimp
  2e:	0000                	unimp
  30:	1024                	addi	s1,sp,40
  32:	0000                	unimp
  34:	00b4                	addi	a3,sp,72
	...

Disassembly of section .debug_str:

00000000 <.debug_str>:
   0:	756d                	lui	a0,0xffffb
   2:	646c                	flw	fa1,76(s0)
   4:	3369                	jal	fffffd8e <__heap_start+0xffffdd8e>
   6:	532e                	lw	t1,232(sp)
   8:	2f00                	fld	fs0,24(a4)
   a:	7355                	lui	t1,0xffff5
   c:	7265                	lui	tp,0xffff9
   e:	72642f73          	csrrs	t5,0x726,s0
  12:	6165                	addi	sp,sp,112
  14:	656d                	lui	a0,0x1b
  16:	2f72                	fld	ft10,280(sp)
  18:	65646f43          	0x65646f43
  1c:	7369722f          	0x7369722f
  20:	672d7663          	bgeu	s10,s2,68c <__mulsi3-0x974>
  24:	756e                	flw	fa0,248(sp)
  26:	742d                	lui	s0,0xfffeb
  28:	636c6f6f          	jal	t5,c665e <__heap_start+0xc465e>
  2c:	6168                	flw	fa0,68(a0)
  2e:	6e69                	lui	t3,0x1a
  30:	6975622f          	0x6975622f
  34:	646c                	flw	fa1,76(s0)
  36:	672d                	lui	a4,0xb
  38:	6e2d6363          	bltu	s10,sp,71e <__mulsi3-0x8e2>
  3c:	7765                	lui	a4,0xffff9
  3e:	696c                	flw	fa1,84(a0)
  40:	2d62                	fld	fs10,24(sp)
  42:	67617473          	csrrci	s0,0x676,2
  46:	3265                	jal	fffff9ee <__heap_start+0xffffd9ee>
  48:	7369722f          	0x7369722f
  4c:	32337663          	bgeu	t1,gp,378 <__mulsi3-0xc88>
  50:	752d                	lui	a0,0xfffeb
  52:	6b6e                	flw	fs6,216(sp)
  54:	6f6e                	flw	ft10,216(sp)
  56:	652d6e77          	0x652d6e77
  5a:	666c                	flw	fa1,76(a2)
  5c:	62696c2f          	0x62696c2f
  60:	00636367          	0x636367
  64:	20554e47          	fmsub.s	ft8,fa0,ft5,ft4,rmm
  68:	5341                	li	t1,-16
  6a:	3220                	fld	fs0,96(a2)
  6c:	332e                	fld	ft6,232(sp)
  6e:	69640037          	lui	zero,0x69640
  72:	2e76                	fld	ft8,344(sp)
  74:	          	fadd.s	ft0,ft0,ft0,rne
