
./test/test.om：     文件格式 elf32-littleriscv


Disassembly of section .rom:

00000000 <.rom>:
   0:	00020137          	lui	sp,0x20
   4:	0d4010ef          	jal	ra,10d8 <main>
   8:	0ff00513          	li	a0,255
   c:	000306b7          	lui	a3,0x30
  10:	00a68223          	sb	a0,4(a3) # 30004 <__heap_start+0x2e004>
  14:	ff9ff06f          	j	c <__mulsi3-0xff4>

Disassembly of section .text:

00001000 <__mulsi3>:
    1000:	00050613          	mv	a2,a0
    1004:	00000513          	li	a0,0
    1008:	0015f693          	andi	a3,a1,1
    100c:	00068463          	beqz	a3,1014 <__mulsi3+0x14>
    1010:	00c50533          	add	a0,a0,a2
    1014:	0015d593          	srli	a1,a1,0x1
    1018:	00161613          	slli	a2,a2,0x1
    101c:	fe0596e3          	bnez	a1,1008 <__mulsi3+0x8>
    1020:	00008067          	ret

00001024 <__divsi3>:
    1024:	06054063          	bltz	a0,1084 <__umodsi3+0x10>
    1028:	0605c663          	bltz	a1,1094 <__umodsi3+0x20>

0000102c <__udivsi3>:
    102c:	00058613          	mv	a2,a1
    1030:	00050593          	mv	a1,a0
    1034:	fff00513          	li	a0,-1
    1038:	02060c63          	beqz	a2,1070 <__udivsi3+0x44>
    103c:	00100693          	li	a3,1
    1040:	00b67a63          	bgeu	a2,a1,1054 <__udivsi3+0x28>
    1044:	00c05863          	blez	a2,1054 <__udivsi3+0x28>
    1048:	00161613          	slli	a2,a2,0x1
    104c:	00169693          	slli	a3,a3,0x1
    1050:	feb66ae3          	bltu	a2,a1,1044 <__udivsi3+0x18>
    1054:	00000513          	li	a0,0
    1058:	00c5e663          	bltu	a1,a2,1064 <__udivsi3+0x38>
    105c:	40c585b3          	sub	a1,a1,a2
    1060:	00d56533          	or	a0,a0,a3
    1064:	0016d693          	srli	a3,a3,0x1
    1068:	00165613          	srli	a2,a2,0x1
    106c:	fe0696e3          	bnez	a3,1058 <__udivsi3+0x2c>
    1070:	00008067          	ret

00001074 <__umodsi3>:
    1074:	00008293          	mv	t0,ra
    1078:	fb5ff0ef          	jal	ra,102c <__udivsi3>
    107c:	00058513          	mv	a0,a1
    1080:	00028067          	jr	t0
    1084:	40a00533          	neg	a0,a0
    1088:	00b04863          	bgtz	a1,1098 <__umodsi3+0x24>
    108c:	40b005b3          	neg	a1,a1
    1090:	f9dff06f          	j	102c <__udivsi3>
    1094:	40b005b3          	neg	a1,a1
    1098:	00008293          	mv	t0,ra
    109c:	f91ff0ef          	jal	ra,102c <__udivsi3>
    10a0:	40a00533          	neg	a0,a0
    10a4:	00028067          	jr	t0

000010a8 <__modsi3>:
    10a8:	00008293          	mv	t0,ra
    10ac:	0005ca63          	bltz	a1,10c0 <__modsi3+0x18>
    10b0:	00054c63          	bltz	a0,10c8 <__modsi3+0x20>
    10b4:	f79ff0ef          	jal	ra,102c <__udivsi3>
    10b8:	00058513          	mv	a0,a1
    10bc:	00028067          	jr	t0
    10c0:	40b005b3          	neg	a1,a1
    10c4:	fe0558e3          	bgez	a0,10b4 <__modsi3+0xc>
    10c8:	40a00533          	neg	a0,a0
    10cc:	f61ff0ef          	jal	ra,102c <__udivsi3>
    10d0:	40b00533          	neg	a0,a1
    10d4:	00028067          	jr	t0

Disassembly of section .text.startup:

000010d8 <main>:
    10d8:	fb010113          	addi	sp,sp,-80 # 1ffb0 <__heap_start+0x1dfb0>
    10dc:	05212023          	sw	s2,64(sp)
    10e0:	03312e23          	sw	s3,60(sp)
    10e4:	03412c23          	sw	s4,56(sp)
    10e8:	03512a23          	sw	s5,52(sp)
    10ec:	03812423          	sw	s8,40(sp)
    10f0:	03912223          	sw	s9,36(sp)
    10f4:	04112623          	sw	ra,76(sp)
    10f8:	04812423          	sw	s0,72(sp)
    10fc:	04912223          	sw	s1,68(sp)
    1100:	03612823          	sw	s6,48(sp)
    1104:	03712623          	sw	s7,44(sp)
    1108:	03a12023          	sw	s10,32(sp)
    110c:	01b12e23          	sw	s11,28(sp)
    1110:	00000a93          	li	s5,0
    1114:	00001cb7          	lui	s9,0x1
    1118:	00001c37          	lui	s8,0x1
    111c:	00410913          	addi	s2,sp,4
    1120:	00900993          	li	s3,9
    1124:	00030a37          	lui	s4,0x30
    1128:	218ca583          	lw	a1,536(s9) # 1218 <__bss_start>
    112c:	000a8513          	mv	a0,s5
    1130:	00000b13          	li	s6,0
    1134:	ecdff0ef          	jal	ra,1000 <__mulsi3>
    1138:	21cc2783          	lw	a5,540(s8) # 121c <x>
    113c:	00f50db3          	add	s11,a0,a5
    1140:	0c0dc263          	bltz	s11,1204 <main+0x12c>
    1144:	00000493          	li	s1,0
    1148:	00a00593          	li	a1,10
    114c:	000d8513          	mv	a0,s11
    1150:	f59ff0ef          	jal	ra,10a8 <__modsi3>
    1154:	03050413          	addi	s0,a0,48
    1158:	00048d13          	mv	s10,s1
    115c:	00148493          	addi	s1,s1,1
    1160:	00990733          	add	a4,s2,s1
    1164:	0ff47413          	zext.b	s0,s0
    1168:	000d8513          	mv	a0,s11
    116c:	00a00593          	li	a1,10
    1170:	fe870fa3          	sb	s0,-1(a4)
    1174:	000d8b93          	mv	s7,s11
    1178:	eadff0ef          	jal	ra,1024 <__divsi3>
    117c:	00050d93          	mv	s11,a0
    1180:	fd79c4e3          	blt	s3,s7,1148 <main+0x70>
    1184:	000b0e63          	beqz	s6,11a0 <main+0xc8>
    1188:	01048793          	addi	a5,s1,16
    118c:	002787b3          	add	a5,a5,sp
    1190:	02d00713          	li	a4,45
    1194:	fee78a23          	sb	a4,-12(a5)
    1198:	00048d13          	mv	s10,s1
    119c:	02d00413          	li	s0,45
    11a0:	01a907b3          	add	a5,s2,s10
    11a4:	00c0006f          	j	11b0 <main+0xd8>
    11a8:	fff7c403          	lbu	s0,-1(a5)
    11ac:	00070793          	mv	a5,a4
    11b0:	008a0023          	sb	s0,0(s4) # 30000 <__heap_start+0x2e000>
    11b4:	fff78713          	addi	a4,a5,-1
    11b8:	fef918e3          	bne	s2,a5,11a8 <main+0xd0>
    11bc:	00100793          	li	a5,1
    11c0:	04fa9863          	bne	s5,a5,1210 <main+0x138>
    11c4:	04c12083          	lw	ra,76(sp)
    11c8:	04812403          	lw	s0,72(sp)
    11cc:	04412483          	lw	s1,68(sp)
    11d0:	04012903          	lw	s2,64(sp)
    11d4:	03c12983          	lw	s3,60(sp)
    11d8:	03812a03          	lw	s4,56(sp)
    11dc:	03412a83          	lw	s5,52(sp)
    11e0:	03012b03          	lw	s6,48(sp)
    11e4:	02c12b83          	lw	s7,44(sp)
    11e8:	02812c03          	lw	s8,40(sp)
    11ec:	02412c83          	lw	s9,36(sp)
    11f0:	02012d03          	lw	s10,32(sp)
    11f4:	01c12d83          	lw	s11,28(sp)
    11f8:	00000513          	li	a0,0
    11fc:	05010113          	addi	sp,sp,80
    1200:	00008067          	ret
    1204:	41b00db3          	neg	s11,s11
    1208:	00100b13          	li	s6,1
    120c:	f39ff06f          	j	1144 <main+0x6c>
    1210:	00100a93          	li	s5,1
    1214:	f15ff06f          	j	1128 <main+0x50>
